target datalayout = "e-m:e-p270:32:32-p271:32:32-p272:64:64-i64:64-i128:128-f80:128-n8:16:32:64-S128"
target triple = "x86_64-pc-linux-gnu"

; Function Attrs: mustprogress uwtable
define void @_Z13duAppendCrossP11duDebugDrawffffj(ptr noundef %0, float noundef %1, float noundef %2, float noundef %3, float noundef %4, i32 noundef %5) #2 {
  %7 = alloca ptr, align 8
  %8 = alloca float, align 4
  %9 = alloca float, align 4
  %10 = alloca float, align 4
  %11 = alloca float, align 4
  %12 = alloca i32, align 4
  store ptr %0, ptr %7, align 8
  store float %1, ptr %8, align 4
  store float %2, ptr %9, align 4
  store float %3, ptr %10, align 4
  store float %4, ptr %11, align 4
  store i32 %5, ptr %12, align 4
  %13 = load ptr, ptr %7, align 8
  %14 = icmp ne ptr %13, null
  br i1 %14, label %16, label %15

15:                                               ; preds = %6
  br label %77

16:                                               ; preds = %6
  %17 = load ptr, ptr %7, align 8
  %18 = load float, ptr %8, align 4
  %19 = load float, ptr %11, align 4
  %20 = fsub float %18, %19
  %21 = load float, ptr %9, align 4
  %22 = load float, ptr %10, align 4
  %23 = load i32, ptr %12, align 4
  %24 = load ptr, ptr %17, align 8
  %25 = getelementptr inbounds ptr, ptr %24, i64 6
  %26 = load ptr, ptr %25, align 8
  call void %26(ptr noundef nonnull align 8 dereferenceable(8) %17, float noundef %20, float noundef %21, float noundef %22, i32 noundef %23)
  %27 = load ptr, ptr %7, align 8
  %28 = load float, ptr %8, align 4
  %29 = load float, ptr %11, align 4
  %30 = fadd float %28, %29
  %31 = load float, ptr %9, align 4
  %32 = load float, ptr %10, align 4
  %33 = load i32, ptr %12, align 4
  %34 = load ptr, ptr %27, align 8
  %35 = getelementptr inbounds ptr, ptr %34, i64 6
  %36 = load ptr, ptr %35, align 8
  call void %36(ptr noundef nonnull align 8 dereferenceable(8) %27, float noundef %30, float noundef %31, float noundef %32, i32 noundef %33)
  %37 = load ptr, ptr %7, align 8
  %38 = load float, ptr %8, align 4
  %39 = load float, ptr %9, align 4
  %40 = load float, ptr %11, align 4
  %41 = fsub float %39, %40
  %42 = load float, ptr %10, align 4
  %43 = load i32, ptr %12, align 4
  %44 = load ptr, ptr %37, align 8
  %45 = getelementptr inbounds ptr, ptr %44, i64 6
  %46 = load ptr, ptr %45, align 8
  call void %46(ptr noundef nonnull align 8 dereferenceable(8) %37, float noundef %38, float noundef %41, float noundef %42, i32 noundef %43)
  %47 = load ptr, ptr %7, align 8
  %48 = load float, ptr %8, align 4
  %49 = load float, ptr %9, align 4
  %50 = load float, ptr %11, align 4
  %51 = fadd float %49, %50
  %52 = load float, ptr %10, align 4
  %53 = load i32, ptr %12, align 4
  %54 = load ptr, ptr %47, align 8
  %55 = getelementptr inbounds ptr, ptr %54, i64 6
  %56 = load ptr, ptr %55, align 8
  call void %56(ptr noundef nonnull align 8 dereferenceable(8) %47, float noundef %48, float noundef %51, float noundef %52, i32 noundef %53)
  %57 = load ptr, ptr %7, align 8
  %58 = load float, ptr %8, align 4
  %59 = load float, ptr %9, align 4
  %60 = load float, ptr %10, align 4
  %61 = load float, ptr %11, align 4
  %62 = fsub float %60, %61
  %63 = load i32, ptr %12, align 4
  %64 = load ptr, ptr %57, align 8
  %65 = getelementptr inbounds ptr, ptr %64, i64 6
  %66 = load ptr, ptr %65, align 8
  call void %66(ptr noundef nonnull align 8 dereferenceable(8) %57, float noundef %58, float noundef %59, float noundef %62, i32 noundef %63)
  %67 = load ptr, ptr %7, align 8
  %68 = load float, ptr %8, align 4
  %69 = load float, ptr %9, align 4
  %70 = load float, ptr %10, align 4
  %71 = load float, ptr %11, align 4
  %72 = fadd float %70, %71
  %73 = load i32, ptr %12, align 4
  %74 = load ptr, ptr %67, align 8
  %75 = getelementptr inbounds ptr, ptr %74, i64 6
  %76 = load ptr, ptr %75, align 8
  call void %76(ptr noundef nonnull align 8 dereferenceable(8) %67, float noundef %68, float noundef %69, float noundef %72, i32 noundef %73)
  br label %77

77:                                               ; preds = %16, %15
  ret void
}