; Function Attrs: mustprogress uwtable
define void @_Z13duAppendCrossP11duDebugDrawffffj(ptr noundef %0, float noundef %1, float noundef %2, float noundef %3, float noundef %4, i32 noundef %5) local_unnamed_addr #4 {
  %.not = icmp eq ptr %0, null
  br i1 %.not, label %32, label %7

7:                                                ; preds = %6
  %8 = fsub float %1, %4
  %9 = load ptr, ptr %0, align 8
  %10 = getelementptr inbounds i8, ptr %9, i64 48
  %11 = load ptr, ptr %10, align 8
  tail call void %11(ptr noundef nonnull align 8 dereferenceable(8) %0, float noundef %8, float noundef %2, float noundef %3, i32 noundef %5)
  %12 = fadd float %1, %4
  %13 = load ptr, ptr %0, align 8
  %14 = getelementptr inbounds i8, ptr %13, i64 48
  %15 = load ptr, ptr %14, align 8
  tail call void %15(ptr noundef nonnull align 8 dereferenceable(8) %0, float noundef %12, float noundef %2, float noundef %3, i32 noundef %5)
  %16 = fsub float %2, %4
  %17 = load ptr, ptr %0, align 8
  %18 = getelementptr inbounds i8, ptr %17, i64 48
  %19 = load ptr, ptr %18, align 8
  tail call void %19(ptr noundef nonnull align 8 dereferenceable(8) %0, float noundef %1, float noundef %16, float noundef %3, i32 noundef %5)
  %20 = fadd float %2, %4
  %21 = load ptr, ptr %0, align 8
  %22 = getelementptr inbounds i8, ptr %21, i64 48
  %23 = load ptr, ptr %22, align 8
  tail call void %23(ptr noundef nonnull align 8 dereferenceable(8) %0, float noundef %1, float noundef %20, float noundef %3, i32 noundef %5)
  %24 = fsub float %3, %4
  %25 = load ptr, ptr %0, align 8
  %26 = getelementptr inbounds i8, ptr %25, i64 48
  %27 = load ptr, ptr %26, align 8
  tail call void %27(ptr noundef nonnull align 8 dereferenceable(8) %0, float noundef %1, float noundef %2, float noundef %24, i32 noundef %5)
  %28 = fadd float %3, %4
  %29 = load ptr, ptr %0, align 8
  %30 = getelementptr inbounds i8, ptr %29, i64 48
  %31 = load ptr, ptr %30, align 8
  tail call void %31(ptr noundef nonnull align 8 dereferenceable(8) %0, float noundef %1, float noundef %2, float noundef %28, i32 noundef %5)
  br label %32

32:                                               ; preds = %6, %7
  ret void
}